target datalayout = "e-m:e-p270:32:32-p271:32:32-p272:64:64-i64:64-i128:128-f80:128-n8:16:32:64-S128"
target triple = "x86_64-pc-linux-gnu"

; Function Attrs: nounwind uwtable
define internal zeroext i1 @is_complex_array(i32 noundef %0) #0 {
  %2 = alloca i32, align 4
  %3 = alloca i32, align 4
  store i32 %0, ptr %2, align 4
  call void @llvm.lifetime.start.p0(i64 4, ptr %3) #6
  %4 = load i32, ptr %2, align 4
  %5 = call i32 @get_element_type(i32 noundef %4)
  store i32 %5, ptr %3, align 4
  %6 = load i32, ptr %3, align 4
  %7 = icmp ne i32 %6, 0
  br i1 %7, label %8, label %12

8:                                                ; preds = %1
  %9 = load i32, ptr %3, align 4
  %10 = call i32 @typeOrDomainTypeRelid(i32 noundef %9)
  %11 = icmp ne i32 %10, 0
  br label %12

12:                                               ; preds = %8, %1
  %13 = phi i1 [ false, %1 ], [ %11, %8 ]
  call void @llvm.lifetime.end.p0(i64 4, ptr %3) #6
  ret i1 %13
}