; Function Attrs: nounwind uwtable
define internal fastcc zeroext i1 @is_complex_array(i32 noundef %0) unnamed_addr #0 {
  %2 = tail call i32 @get_element_type(i32 noundef %0) #5
  %.not = icmp eq i32 %2, 0
  br i1 %.not, label %6, label %3

3:                                                ; preds = %1
  %4 = tail call i32 @typeOrDomainTypeRelid(i32 noundef %2) #5
  %5 = icmp ne i32 %4, 0
  br label %6

6:                                                ; preds = %3, %1
  %7 = phi i1 [ false, %1 ], [ %5, %3 ]
  ret i1 %7
}